target datalayout = "e-m:e-p270:32:32-p271:32:32-p272:64:64-i64:64-i128:128-f80:128-n8:16:32:64-S128"
target triple = "x86_64-pc-linux-gnu"

%"class.std::__cxx11::basic_string" = type { %"struct.std::__cxx11::basic_string<char>::_Alloc_hider", i64, %union.anon.15 }
%"struct.std::__cxx11::basic_string<char>::_Alloc_hider" = type { ptr }
%union.anon.15 = type { i64, [8 x i8] }
%"struct.OpenImageIO::v3_1_0::(anonymous namespace)::ZfileHeader" = type { i32, i16, i16, %"class.Imath_3_1::Matrix44", %"class.Imath_3_1::Matrix44" }
%"class.Imath_3_1::Matrix44" = type { [4 x [4 x float]] }

@.str.1 = private unnamed_addr constant [3 x i8] c"rb\00", align 1

; Function Attrs: mustprogress nounwind uwtable
define available_externally noundef ptr @_ZNKSt7__cxx1112basic_stringIcSt11char_traitsIcESaIcEE7_M_dataEv(ptr noundef nonnull align 8 dereferenceable(32) %0) #6 align 2 {
  %2 = alloca ptr, align 8
  store ptr %0, ptr %2, align 8, !tbaa !14
  %3 = load ptr, ptr %2, align 8
  %4 = getelementptr inbounds nuw %"class.std::__cxx11::basic_string", ptr %3, i32 0, i32 0
  %5 = getelementptr inbounds nuw %"struct.std::__cxx11::basic_string<char>::_Alloc_hider", ptr %4, i32 0, i32 0
  %6 = load ptr, ptr %5, align 8, !tbaa !175
  ret ptr %6
}

; Function Attrs: inlinehint mustprogress nounwind uwtable
define linkonce_odr hidden void @_ZN9Imath_3_18Matrix44IfEC2Ev(ptr noundef nonnull align 4 dereferenceable(64) %0) unnamed_addr #0 comdat align 2 {
  %2 = alloca ptr, align 8
  store ptr %0, ptr %2, align 8, !tbaa !155
  %3 = load ptr, ptr %2, align 8
  %4 = getelementptr inbounds nuw %"class.Imath_3_1::Matrix44", ptr %3, i32 0, i32 0
  %5 = getelementptr inbounds [4 x [4 x float]], ptr %4, i64 0, i64 0
  %6 = getelementptr inbounds [4 x float], ptr %5, i64 0, i64 0
  store float 1.000000e+00, ptr %6, align 4, !tbaa !81
  %7 = getelementptr inbounds nuw %"class.Imath_3_1::Matrix44", ptr %3, i32 0, i32 0
  %8 = getelementptr inbounds [4 x [4 x float]], ptr %7, i64 0, i64 0
  %9 = getelementptr inbounds [4 x float], ptr %8, i64 0, i64 1
  store float 0.000000e+00, ptr %9, align 4, !tbaa !81
  %10 = getelementptr inbounds nuw %"class.Imath_3_1::Matrix44", ptr %3, i32 0, i32 0
  %11 = getelementptr inbounds [4 x [4 x float]], ptr %10, i64 0, i64 0
  %12 = getelementptr inbounds [4 x float], ptr %11, i64 0, i64 2
  store float 0.000000e+00, ptr %12, align 4, !tbaa !81
  %13 = getelementptr inbounds nuw %"class.Imath_3_1::Matrix44", ptr %3, i32 0, i32 0
  %14 = getelementptr inbounds [4 x [4 x float]], ptr %13, i64 0, i64 0
  %15 = getelementptr inbounds [4 x float], ptr %14, i64 0, i64 3
  store float 0.000000e+00, ptr %15, align 4, !tbaa !81
  %16 = getelementptr inbounds nuw %"class.Imath_3_1::Matrix44", ptr %3, i32 0, i32 0
  %17 = getelementptr inbounds [4 x [4 x float]], ptr %16, i64 0, i64 1
  %18 = getelementptr inbounds [4 x float], ptr %17, i64 0, i64 0
  store float 0.000000e+00, ptr %18, align 4, !tbaa !81
  %19 = getelementptr inbounds nuw %"class.Imath_3_1::Matrix44", ptr %3, i32 0, i32 0
  %20 = getelementptr inbounds [4 x [4 x float]], ptr %19, i64 0, i64 1
  %21 = getelementptr inbounds [4 x float], ptr %20, i64 0, i64 1
  store float 1.000000e+00, ptr %21, align 4, !tbaa !81
  %22 = getelementptr inbounds nuw %"class.Imath_3_1::Matrix44", ptr %3, i32 0, i32 0
  %23 = getelementptr inbounds [4 x [4 x float]], ptr %22, i64 0, i64 1
  %24 = getelementptr inbounds [4 x float], ptr %23, i64 0, i64 2
  store float 0.000000e+00, ptr %24, align 4, !tbaa !81
  %25 = getelementptr inbounds nuw %"class.Imath_3_1::Matrix44", ptr %3, i32 0, i32 0
  %26 = getelementptr inbounds [4 x [4 x float]], ptr %25, i64 0, i64 1
  %27 = getelementptr inbounds [4 x float], ptr %26, i64 0, i64 3
  store float 0.000000e+00, ptr %27, align 4, !tbaa !81
  %28 = getelementptr inbounds nuw %"class.Imath_3_1::Matrix44", ptr %3, i32 0, i32 0
  %29 = getelementptr inbounds [4 x [4 x float]], ptr %28, i64 0, i64 2
  %30 = getelementptr inbounds [4 x float], ptr %29, i64 0, i64 0
  store float 0.000000e+00, ptr %30, align 4, !tbaa !81
  %31 = getelementptr inbounds nuw %"class.Imath_3_1::Matrix44", ptr %3, i32 0, i32 0
  %32 = getelementptr inbounds [4 x [4 x float]], ptr %31, i64 0, i64 2
  %33 = getelementptr inbounds [4 x float], ptr %32, i64 0, i64 1
  store float 0.000000e+00, ptr %33, align 4, !tbaa !81
  %34 = getelementptr inbounds nuw %"class.Imath_3_1::Matrix44", ptr %3, i32 0, i32 0
  %35 = getelementptr inbounds [4 x [4 x float]], ptr %34, i64 0, i64 2
  %36 = getelementptr inbounds [4 x float], ptr %35, i64 0, i64 2
  store float 1.000000e+00, ptr %36, align 4, !tbaa !81
  %37 = getelementptr inbounds nuw %"class.Imath_3_1::Matrix44", ptr %3, i32 0, i32 0
  %38 = getelementptr inbounds [4 x [4 x float]], ptr %37, i64 0, i64 2
  %39 = getelementptr inbounds [4 x float], ptr %38, i64 0, i64 3
  store float 0.000000e+00, ptr %39, align 4, !tbaa !81
  %40 = getelementptr inbounds nuw %"class.Imath_3_1::Matrix44", ptr %3, i32 0, i32 0
  %41 = getelementptr inbounds [4 x [4 x float]], ptr %40, i64 0, i64 3
  %42 = getelementptr inbounds [4 x float], ptr %41, i64 0, i64 0
  store float 0.000000e+00, ptr %42, align 4, !tbaa !81
  %43 = getelementptr inbounds nuw %"class.Imath_3_1::Matrix44", ptr %3, i32 0, i32 0
  %44 = getelementptr inbounds [4 x [4 x float]], ptr %43, i64 0, i64 3
  %45 = getelementptr inbounds [4 x float], ptr %44, i64 0, i64 1
  store float 0.000000e+00, ptr %45, align 4, !tbaa !81
  %46 = getelementptr inbounds nuw %"class.Imath_3_1::Matrix44", ptr %3, i32 0, i32 0
  %47 = getelementptr inbounds [4 x [4 x float]], ptr %46, i64 0, i64 3
  %48 = getelementptr inbounds [4 x float], ptr %47, i64 0, i64 2
  store float 0.000000e+00, ptr %48, align 4, !tbaa !81
  %49 = getelementptr inbounds nuw %"class.Imath_3_1::Matrix44", ptr %3, i32 0, i32 0
  %50 = getelementptr inbounds [4 x [4 x float]], ptr %49, i64 0, i64 3
  %51 = getelementptr inbounds [4 x float], ptr %50, i64 0, i64 3
  store float 1.000000e+00, ptr %51, align 4, !tbaa !81
  ret void
}

; Function Attrs: mustprogress nounwind uwtable
define available_externally noundef ptr @_ZNKSt7__cxx1112basic_stringIcSt11char_traitsIcESaIcEE5c_strEv(ptr noundef nonnull align 8 dereferenceable(32) %0) #6 align 2 {
  %2 = alloca ptr, align 8
  store ptr %0, ptr %2, align 8, !tbaa !14
  %3 = load ptr, ptr %2, align 8
  %4 = call noundef ptr @_ZNKSt7__cxx1112basic_stringIcSt11char_traitsIcESaIcEE7_M_dataEv(ptr noundef nonnull align 8 dereferenceable(32) %3)
  ret ptr %4
}

; Function Attrs: inlinehint mustprogress nounwind uwtable
define internal void @_ZN11OpenImageIO6v3_1_012_GLOBAL__N_111ZfileHeaderC2Ev(ptr noundef nonnull align 4 dereferenceable(136) %0) unnamed_addr #0 align 2 {
  %2 = alloca ptr, align 8
  store ptr %0, ptr %2, align 8, !tbaa !29
  %3 = load ptr, ptr %2, align 8
  %4 = getelementptr inbounds nuw %"struct.OpenImageIO::v3_1_0::(anonymous namespace)::ZfileHeader", ptr %3, i32 0, i32 3
  call void @_ZN9Imath_3_18Matrix44IfEC2Ev(ptr noundef nonnull align 4 dereferenceable(64) %4) #5
  %5 = getelementptr inbounds nuw %"struct.OpenImageIO::v3_1_0::(anonymous namespace)::ZfileHeader", ptr %3, i32 0, i32 4
  call void @_ZN9Imath_3_18Matrix44IfEC2Ev(ptr noundef nonnull align 4 dereferenceable(64) %5) #5
  ret void
}

; Function Attrs: mustprogress uwtable
define internal noundef ptr @_ZN11OpenImageIO6v3_1_012_GLOBAL__N_17open_gzERKNSt7__cxx1112basic_stringIcSt11char_traitsIcESaIcEEEPKc(ptr noundef nonnull align 8 dereferenceable(32) %0, ptr noundef %1) #7 {
  %3 = alloca ptr, align 8
  %4 = alloca ptr, align 8
  %5 = alloca ptr, align 8
  store ptr %0, ptr %3, align 8, !tbaa !14
  store ptr %1, ptr %4, align 8, !tbaa !27
  call void @llvm.lifetime.start.p0(i64 8, ptr %5) #5
  %6 = load ptr, ptr %3, align 8, !tbaa !14
  %7 = call noundef ptr @_ZNKSt7__cxx1112basic_stringIcSt11char_traitsIcESaIcEE5c_strEv(ptr noundef nonnull align 8 dereferenceable(32) %6) #5
  %8 = load ptr, ptr %4, align 8, !tbaa !27
  %9 = call ptr @gzopen(ptr noundef %7, ptr noundef %8)
  store ptr %9, ptr %5, align 8, !tbaa !16
  %10 = load ptr, ptr %5, align 8, !tbaa !16
  call void @llvm.lifetime.end.p0(i64 8, ptr %5) #5
  ret ptr %10
}

; Function Attrs: mustprogress uwtable
define hidden noundef zeroext i1 @_ZNK11OpenImageIO6v3_1_010ZfileInput10valid_fileERKNSt7__cxx1112basic_stringIcSt11char_traitsIcESaIcEEE(ptr noundef nonnull align 8 dereferenceable(232) %0, ptr noundef nonnull align 8 dereferenceable(32) %1) unnamed_addr #7 align 2 {
  %3 = alloca i1, align 1
  %4 = alloca ptr, align 8
  %5 = alloca ptr, align 8
  %6 = alloca ptr, align 8
  %7 = alloca i32, align 4
  %8 = alloca %"struct.OpenImageIO::v3_1_0::(anonymous namespace)::ZfileHeader", align 4
  %9 = alloca i8, align 1
  store ptr %0, ptr %4, align 8, !tbaa !8
  store ptr %1, ptr %5, align 8, !tbaa !14
  call void @llvm.lifetime.start.p0(i64 8, ptr %6) #5
  %10 = load ptr, ptr %5, align 8, !tbaa !14
  %11 = call noundef ptr @_ZN11OpenImageIO6v3_1_012_GLOBAL__N_17open_gzERKNSt7__cxx1112basic_stringIcSt11char_traitsIcESaIcEEEPKc(ptr noundef nonnull align 8 dereferenceable(32) %10, ptr noundef @.str.1)
  store ptr %11, ptr %6, align 8, !tbaa !16
  %12 = load ptr, ptr %6, align 8, !tbaa !16
  %13 = icmp ne ptr %12, null
  br i1 %13, label %15, label %14

14:                                               ; preds = %2
  store i1 false, ptr %3, align 1
  store i32 1, ptr %7, align 4
  br label %32

15:                                               ; preds = %2
  call void @llvm.lifetime.start.p0(i64 136, ptr %8) #5
  call void @_ZN11OpenImageIO6v3_1_012_GLOBAL__N_111ZfileHeaderC2Ev(ptr noundef nonnull align 4 dereferenceable(136) %8) #5
  %16 = load ptr, ptr %6, align 8, !tbaa !16
  %17 = call i32 @gzread(ptr noundef %16, ptr noundef %8, i32 noundef 136)
  call void @llvm.lifetime.start.p0(i64 1, ptr %9) #5
  %18 = getelementptr inbounds nuw %"struct.OpenImageIO::v3_1_0::(anonymous namespace)::ZfileHeader", ptr %8, i32 0, i32 0
  %19 = load i32, ptr %18, align 4, !tbaa !18
  %20 = icmp eq i32 %19, 789079979
  br i1 %20, label %25, label %21

21:                                               ; preds = %15
  %22 = getelementptr inbounds nuw %"struct.OpenImageIO::v3_1_0::(anonymous namespace)::ZfileHeader", ptr %8, i32 0, i32 0
  %23 = load i32, ptr %22, align 4, !tbaa !18
  %24 = icmp eq i32 %23, -1419311057
  br label %25

25:                                               ; preds = %21, %15
  %26 = phi i1 [ true, %15 ], [ %24, %21 ]
  %27 = zext i1 %26 to i8
  store i8 %27, ptr %9, align 1, !tbaa !23
  %28 = load ptr, ptr %6, align 8, !tbaa !16
  %29 = call i32 @gzclose(ptr noundef %28)
  %30 = load i8, ptr %9, align 1, !tbaa !23, !range !25, !noundef !26
  %31 = trunc i8 %30 to i1
  store i1 %31, ptr %3, align 1
  store i32 1, ptr %7, align 4
  call void @llvm.lifetime.end.p0(i64 1, ptr %9) #5
  call void @llvm.lifetime.end.p0(i64 136, ptr %8) #5
  br label %32

32:                                               ; preds = %25, %14
  call void @llvm.lifetime.end.p0(i64 8, ptr %6) #5
  %33 = load i1, ptr %3, align 1
  ret i1 %33
}