; Function Attrs: mustprogress uwtable
define hidden noundef zeroext i1 @_ZNK11OpenImageIO6v3_1_010ZfileInput10valid_fileERKNSt7__cxx1112basic_stringIcSt11char_traitsIcESaIcEEE(ptr nonnull readnone align 8 captures(none) %0, ptr noundef nonnull readonly align 8 captures(none) dereferenceable(32) %1) unnamed_addr #6 align 2 {
  %3 = alloca %"struct.OpenImageIO::v3_1_0::(anonymous namespace)::ZfileHeader", align 4
  %.val = load ptr, ptr %1, align 8, !tbaa !48
  %4 = tail call noundef ptr @gzopen(ptr noundef %.val, ptr noundef nonnull @.str.1)
  %.not = icmp eq ptr %4, null
  br i1 %.not, label %26, label %5

5:                                                ; preds = %2
  call void @llvm.lifetime.start.p0(i64 136, ptr nonnull %3) #25
  %6 = getelementptr inbounds nuw i8, ptr %3, i64 8
  store float 1.000000e+00, ptr %6, align 4, !tbaa !49
  %7 = getelementptr inbounds nuw i8, ptr %3, i64 12
  %8 = getelementptr inbounds nuw i8, ptr %3, i64 28
  call void @llvm.memset.p0.i64(ptr noundef nonnull align 4 dereferenceable(16) %7, i8 0, i64 16, i1 false)
  store float 1.000000e+00, ptr %8, align 4, !tbaa !49
  %9 = getelementptr inbounds nuw i8, ptr %3, i64 32
  %10 = getelementptr inbounds nuw i8, ptr %3, i64 48
  call void @llvm.memset.p0.i64(ptr noundef nonnull align 4 dereferenceable(16) %9, i8 0, i64 16, i1 false)
  store float 1.000000e+00, ptr %10, align 4, !tbaa !49
  %11 = getelementptr inbounds nuw i8, ptr %3, i64 52
  %12 = getelementptr inbounds nuw i8, ptr %3, i64 68
  call void @llvm.memset.p0.i64(ptr noundef nonnull align 4 dereferenceable(16) %11, i8 0, i64 16, i1 false)
  store float 1.000000e+00, ptr %12, align 4, !tbaa !49
  %13 = getelementptr inbounds nuw i8, ptr %3, i64 72
  store float 1.000000e+00, ptr %13, align 4, !tbaa !49
  %14 = getelementptr inbounds nuw i8, ptr %3, i64 76
  %15 = getelementptr inbounds nuw i8, ptr %3, i64 92
  call void @llvm.memset.p0.i64(ptr noundef nonnull align 4 dereferenceable(16) %14, i8 0, i64 16, i1 false)
  store float 1.000000e+00, ptr %15, align 4, !tbaa !49
  %16 = getelementptr inbounds nuw i8, ptr %3, i64 96
  %17 = getelementptr inbounds nuw i8, ptr %3, i64 112
  call void @llvm.memset.p0.i64(ptr noundef nonnull align 4 dereferenceable(16) %16, i8 0, i64 16, i1 false)
  store float 1.000000e+00, ptr %17, align 4, !tbaa !49
  %18 = getelementptr inbounds nuw i8, ptr %3, i64 116
  %19 = getelementptr inbounds nuw i8, ptr %3, i64 132
  call void @llvm.memset.p0.i64(ptr noundef nonnull align 4 dereferenceable(16) %18, i8 0, i64 16, i1 false)
  store float 1.000000e+00, ptr %19, align 4, !tbaa !49
  %20 = call i32 @gzread(ptr noundef nonnull %4, ptr noundef nonnull %3, i32 noundef 136)
  %21 = load i32, ptr %3, align 4, !tbaa !51
  %22 = icmp eq i32 %21, 789079979
  %23 = icmp eq i32 %21, -1419311057
  %24 = or i1 %22, %23
  %25 = call i32 @gzclose(ptr noundef nonnull %4)
  call void @llvm.lifetime.end.p0(i64 136, ptr nonnull %3) #25
  br label %26

26:                                               ; preds = %2, %5
  %.0 = phi i1 [ %24, %5 ], [ false, %2 ]
  ret i1 %.0
}